target datalayout = "e-m:e-p270:32:32-p271:32:32-p272:64:64-i64:64-i128:128-f80:128-n8:16:32:64-S128"
target triple = "x86_64-pc-linux-gnu"

%class.OopMapBlocksBuilder = type { ptr, i32, i32 }

; Function Attrs: mustprogress nounwind uwtable
define hidden void @_ZN19OopMapBlocksBuilderC2Ej(ptr noundef nonnull align 8 dereferenceable(16) %0, i32 noundef %1) unnamed_addr #1 align 2 {
  %3 = alloca ptr, align 8
  %4 = alloca i32, align 4
  store ptr %0, ptr %3, align 8
  store i32 %1, ptr %4, align 4
  %5 = load ptr, ptr %3, align 8
  %6 = load i32, ptr %4, align 4
  %7 = getelementptr inbounds %class.OopMapBlocksBuilder, ptr %5, i32 0, i32 2
  store i32 %6, ptr %7, align 4
  %8 = getelementptr inbounds %class.OopMapBlocksBuilder, ptr %5, i32 0, i32 1
  store i32 0, ptr %8, align 8
  %9 = load i32, ptr %4, align 4
  %10 = icmp eq i32 %9, 0
  br i1 %10, label %11, label %13

11:                                               ; preds = %2
  %12 = getelementptr inbounds %class.OopMapBlocksBuilder, ptr %5, i32 0, i32 0
  store ptr null, ptr %12, align 8
  br label %25

13:                                               ; preds = %2
  %14 = getelementptr inbounds %class.OopMapBlocksBuilder, ptr %5, i32 0, i32 2
  %15 = load i32, ptr %14, align 4
  %16 = zext i32 %15 to i64
  %17 = mul i64 %16, 8
  %18 = call noundef ptr @_Z23resource_allocate_bytesmN17AllocFailStrategy13AllocFailEnumE(i64 noundef %17, i32 noundef 0)
  %19 = getelementptr inbounds %class.OopMapBlocksBuilder, ptr %5, i32 0, i32 0
  store ptr %18, ptr %19, align 8
  %20 = getelementptr inbounds %class.OopMapBlocksBuilder, ptr %5, i32 0, i32 0
  %21 = load ptr, ptr %20, align 8
  %22 = load i32, ptr %4, align 4
  %23 = zext i32 %22 to i64
  %24 = mul i64 8, %23
  call void @llvm.memset.p0.i64(ptr align 4 %21, i8 0, i64 %24, i1 false)
  br label %25

25:                                               ; preds = %13, %11
  ret void
}