; Function Attrs: mustprogress nounwind uwtable
define hidden void @_ZN19OopMapBlocksBuilderC2Ej(ptr nocapture noundef nonnull writeonly align 8 dereferenceable(16) %0, i32 noundef %1) unnamed_addr #1 align 2 {
  %3 = getelementptr inbounds i8, ptr %0, i64 12
  store i32 %1, ptr %3, align 4
  %4 = getelementptr inbounds i8, ptr %0, i64 8
  store i32 0, ptr %4, align 8
  %5 = icmp eq i32 %1, 0
  br i1 %5, label %6, label %7

6:                                                ; preds = %2
  store ptr null, ptr %0, align 8
  br label %11

7:                                                ; preds = %2
  %8 = zext i32 %1 to i64
  %9 = shl nuw nsw i64 %8, 3
  %10 = tail call noundef ptr @_Z23resource_allocate_bytesmN17AllocFailStrategy13AllocFailEnumE(i64 noundef %9, i32 noundef 0) #23
  store ptr %10, ptr %0, align 8
  tail call void @llvm.memset.p0.i64(ptr align 4 %10, i8 0, i64 %9, i1 false)
  br label %11

11:                                               ; preds = %7, %6
  ret void
}